; Function Attrs: mustprogress uwtable
define dso_local void @_ZN30btMultiBodySphericalJointLimit9debugDrawEP12btIDebugDraw(ptr noundef nonnull align 8 dereferenceable(232) %this, ptr noundef %drawer) unnamed_addr #6 align 2 {
entry:
  %tr = alloca %class.btTransform, align 4
  store float 1.000000e+00, ptr %tr, align 4
  %arrayidx3.i.i.i.i = getelementptr inbounds i8, ptr %tr, i64 4
  %arrayidx3.i1.i.i.i = getelementptr inbounds i8, ptr %tr, i64 20
  call void @llvm.memset.p0.i64(ptr noundef nonnull align 4 dereferenceable(16) %arrayidx3.i.i.i.i, i8 0, i64 16, i1 false)
  store float 1.000000e+00, ptr %arrayidx3.i1.i.i.i, align 4
  %arrayidx5.i2.i.i.i = getelementptr inbounds i8, ptr %tr, i64 24
  %arrayidx5.i5.i.i.i = getelementptr inbounds i8, ptr %tr, i64 40
  call void @llvm.memset.p0.i64(ptr noundef nonnull align 4 dereferenceable(16) %arrayidx5.i2.i.i.i, i8 0, i64 16, i1 false)
  store float 1.000000e+00, ptr %arrayidx5.i5.i.i.i, align 4
  %arrayidx7.i6.i.i.i = getelementptr inbounds i8, ptr %tr, i64 44
  store i32 0, ptr %arrayidx7.i6.i.i.i, align 4
  %m_bodyB = getelementptr inbounds i8, ptr %this, i64 16
  %0 = load ptr, ptr %m_bodyB, align 8
  %tobool.not = icmp eq ptr %0, null
  br i1 %tobool.not, label %if.end, label %if.then

if.then:                                          ; preds = %entry
  %m_linkB = getelementptr inbounds i8, ptr %this, i64 28
  %1 = load i32, ptr %m_linkB, align 4
  %m_pivotB = getelementptr inbounds i8, ptr %this, i64 204
  %call = tail call { <2 x float>, <2 x float> } @_ZNK11btMultiBody15localPosToWorldEiRK9btVector3(ptr noundef nonnull align 8 dereferenceable(640) %0, i32 noundef %1, ptr noundef nonnull align 4 dereferenceable(16) %m_pivotB)
  %2 = extractvalue { <2 x float>, <2 x float> } %call, 0
  %3 = extractvalue { <2 x float>, <2 x float> } %call, 1
  %m_origin.i = getelementptr inbounds i8, ptr %tr, i64 48
  store <2 x float> %2, ptr %m_origin.i, align 4
  %pivotBworld.sroa.2.0.m_origin.i.sroa_idx = getelementptr inbounds i8, ptr %tr, i64 56
  store <2 x float> %3, ptr %pivotBworld.sroa.2.0.m_origin.i.sroa_idx, align 4
  %vtable = load ptr, ptr %drawer, align 8
  %vfn = getelementptr inbounds i8, ptr %vtable, i64 128
  %4 = load ptr, ptr %vfn, align 8
  call void %4(ptr noundef nonnull align 8 dereferenceable(8) %drawer, ptr noundef nonnull align 4 dereferenceable(64) %tr, float noundef 0x3FB99999A0000000)
  br label %if.end

if.end:                                           ; preds = %if.then, %entry
  ret void
}